target datalayout = "e-m:e-p270:32:32-p271:32:32-p272:64:64-i64:64-i128:128-f80:128-n8:16:32:64-S128"
target triple = "x86_64-pc-linux-gnu"

%struct.ForEachState = type { ptr, i32 }
%struct.List = type { i32, i32, i32, ptr, [0 x %union.ListCell] }
%union.ListCell = type { ptr }
%struct.TargetEntry = type { %struct.Expr, ptr, i16, ptr, i32, i32, i16, i8 }
%struct.Expr = type { i32 }
%struct.PathTarget = type { i32, ptr, ptr, %struct.QualCost, i32, i32 }
%struct.QualCost = type { double, double }
%struct.Node = type { i32 }

; Function Attrs: inlinehint nounwind uwtable
define internal i32 @list_length(ptr noundef %0) #4 {
  %2 = alloca ptr, align 8
  store ptr %0, ptr %2, align 8
  %3 = load ptr, ptr %2, align 8
  %4 = icmp ne ptr %3, null
  br i1 %4, label %5, label %9

5:                                                ; preds = %1
  %6 = load ptr, ptr %2, align 8
  %7 = getelementptr inbounds nuw %struct.List, ptr %6, i32 0, i32 1
  %8 = load i32, ptr %7, align 4
  br label %10

9:                                                ; preds = %1
  br label %10

10:                                               ; preds = %9, %5
  %11 = phi i32 [ %8, %5 ], [ 0, %9 ]
  ret i32 %11
}

; Function Attrs: inlinehint nounwind uwtable
define internal ptr @newNode(i64 noundef %0, i32 noundef %1) #4 {
  %3 = alloca i64, align 8
  %4 = alloca i32, align 4
  %5 = alloca ptr, align 8
  store i64 %0, ptr %3, align 8
  store i32 %1, ptr %4, align 4
  call void @llvm.lifetime.start.p0(i64 8, ptr %5) #7
  %6 = load i64, ptr %3, align 8
  %7 = call ptr @palloc0(i64 noundef %6)
  store ptr %7, ptr %5, align 8
  %8 = load i32, ptr %4, align 4
  %9 = load ptr, ptr %5, align 8
  %10 = getelementptr inbounds nuw %struct.Node, ptr %9, i32 0, i32 0
  store i32 %8, ptr %10, align 4
  %11 = load ptr, ptr %5, align 8
  call void @llvm.lifetime.end.p0(i64 8, ptr %5) #7
  ret ptr %11
}

; Function Attrs: nounwind uwtable
define dso_local ptr @make_pathtarget_from_tlist(ptr noundef %0) #0 {
  %2 = alloca ptr, align 8
  %3 = alloca ptr, align 8
  %4 = alloca i32, align 4
  %5 = alloca ptr, align 8
  %6 = alloca %struct.ForEachState, align 8
  %7 = alloca ptr, align 8
  store ptr %0, ptr %2, align 8
  call void @llvm.lifetime.start.p0(i64 8, ptr %3) #7
  %8 = call ptr @newNode(i64 noundef 48, i32 noundef 276)
  store ptr %8, ptr %3, align 8
  call void @llvm.lifetime.start.p0(i64 4, ptr %4) #7
  call void @llvm.lifetime.start.p0(i64 8, ptr %5) #7
  %9 = load ptr, ptr %2, align 8
  %10 = call i32 @list_length(ptr noundef %9)
  %11 = sext i32 %10 to i64
  %12 = mul i64 %11, 4
  %13 = call ptr @palloc(i64 noundef %12)
  %14 = load ptr, ptr %3, align 8
  %15 = getelementptr inbounds nuw %struct.PathTarget, ptr %14, i32 0, i32 2
  store ptr %13, ptr %15, align 8
  store i32 0, ptr %4, align 4
  call void @llvm.lifetime.start.p0(i64 16, ptr %6) #7
  %16 = getelementptr inbounds nuw %struct.ForEachState, ptr %6, i32 0, i32 0
  %17 = load ptr, ptr %2, align 8
  store ptr %17, ptr %16, align 8
  %18 = getelementptr inbounds nuw %struct.ForEachState, ptr %6, i32 0, i32 1
  store i32 0, ptr %18, align 8
  %19 = getelementptr i8, ptr %6, i64 12
  call void @llvm.memset.p0.i64(ptr align 4 %19, i8 0, i64 4, i1 false)
  br label %20

20:                                               ; preds = %69, %1
  %21 = getelementptr inbounds nuw %struct.ForEachState, ptr %6, i32 0, i32 0
  %22 = load ptr, ptr %21, align 8
  %23 = icmp ne ptr %22, null
  br i1 %23, label %24, label %41

24:                                               ; preds = %20
  %25 = getelementptr inbounds nuw %struct.ForEachState, ptr %6, i32 0, i32 1
  %26 = load i32, ptr %25, align 8
  %27 = getelementptr inbounds nuw %struct.ForEachState, ptr %6, i32 0, i32 0
  %28 = load ptr, ptr %27, align 8
  %29 = getelementptr inbounds nuw %struct.List, ptr %28, i32 0, i32 1
  %30 = load i32, ptr %29, align 4
  %31 = icmp slt i32 %26, %30
  br i1 %31, label %32, label %41

32:                                               ; preds = %24
  %33 = getelementptr inbounds nuw %struct.ForEachState, ptr %6, i32 0, i32 0
  %34 = load ptr, ptr %33, align 8
  %35 = getelementptr inbounds nuw %struct.List, ptr %34, i32 0, i32 3
  %36 = load ptr, ptr %35, align 8
  %37 = getelementptr inbounds nuw %struct.ForEachState, ptr %6, i32 0, i32 1
  %38 = load i32, ptr %37, align 8
  %39 = sext i32 %38 to i64
  %40 = getelementptr inbounds %union.ListCell, ptr %36, i64 %39
  store ptr %40, ptr %5, align 8
  br label %42

41:                                               ; preds = %24, %20
  store ptr null, ptr %5, align 8
  br label %42

42:                                               ; preds = %41, %32
  %43 = phi i32 [ 1, %32 ], [ 0, %41 ]
  %44 = icmp ne i32 %43, 0
  br i1 %44, label %46, label %45

45:                                               ; preds = %42
  call void @llvm.lifetime.end.p0(i64 16, ptr %6) #7
  br label %73

46:                                               ; preds = %42
  call void @llvm.lifetime.start.p0(i64 8, ptr %7) #7
  %47 = load ptr, ptr %5, align 8
  %48 = load ptr, ptr %47, align 8
  store ptr %48, ptr %7, align 8
  %49 = load ptr, ptr %3, align 8
  %50 = getelementptr inbounds nuw %struct.PathTarget, ptr %49, i32 0, i32 1
  %51 = load ptr, ptr %50, align 8
  %52 = load ptr, ptr %7, align 8
  %53 = getelementptr inbounds nuw %struct.TargetEntry, ptr %52, i32 0, i32 1
  %54 = load ptr, ptr %53, align 8
  %55 = call ptr @lappend(ptr noundef %51, ptr noundef %54)
  %56 = load ptr, ptr %3, align 8
  %57 = getelementptr inbounds nuw %struct.PathTarget, ptr %56, i32 0, i32 1
  store ptr %55, ptr %57, align 8
  %58 = load ptr, ptr %7, align 8
  %59 = getelementptr inbounds nuw %struct.TargetEntry, ptr %58, i32 0, i32 4
  %60 = load i32, ptr %59, align 8
  %61 = load ptr, ptr %3, align 8
  %62 = getelementptr inbounds nuw %struct.PathTarget, ptr %61, i32 0, i32 2
  %63 = load ptr, ptr %62, align 8
  %64 = load i32, ptr %4, align 4
  %65 = sext i32 %64 to i64
  %66 = getelementptr inbounds i32, ptr %63, i64 %65
  store i32 %60, ptr %66, align 4
  %67 = load i32, ptr %4, align 4
  %68 = add i32 %67, 1
  store i32 %68, ptr %4, align 4
  call void @llvm.lifetime.end.p0(i64 8, ptr %7) #7
  br label %69

69:                                               ; preds = %46
  %70 = getelementptr inbounds nuw %struct.ForEachState, ptr %6, i32 0, i32 1
  %71 = load i32, ptr %70, align 8
  %72 = add i32 %71, 1
  store i32 %72, ptr %70, align 8
  br label %20, !llvm.loop !24

73:                                               ; preds = %45
  %74 = load ptr, ptr %3, align 8
  %75 = getelementptr inbounds nuw %struct.PathTarget, ptr %74, i32 0, i32 5
  store i32 0, ptr %75, align 4
  %76 = load ptr, ptr %3, align 8
  call void @llvm.lifetime.end.p0(i64 8, ptr %5) #7
  call void @llvm.lifetime.end.p0(i64 4, ptr %4) #7
  call void @llvm.lifetime.end.p0(i64 8, ptr %3) #7
  ret ptr %76
}