; Function Attrs: nounwind uwtable
define dso_local noundef ptr @make_pathtarget_from_tlist(ptr noundef readonly captures(address_is_null) %0) local_unnamed_addr #0 {
  %2 = tail call noundef ptr @palloc0(i64 noundef 48) #10
  store i32 276, ptr %2, align 4
  %.not.i = icmp eq ptr %0, null
  br i1 %.not.i, label %list_length.exit.thread, label %.lr.ph

list_length.exit.thread:                          ; preds = %1
  %3 = tail call ptr @palloc(i64 noundef 0) #10
  %4 = getelementptr inbounds nuw i8, ptr %2, i64 16
  store ptr %3, ptr %4, align 8
  br label %._crit_edge

.lr.ph:                                           ; preds = %1
  %5 = getelementptr inbounds nuw i8, ptr %0, i64 4
  %6 = load i32, ptr %5, align 4
  %7 = sext i32 %6 to i64
  %8 = shl nsw i64 %7, 2
  %9 = tail call ptr @palloc(i64 noundef %8) #10
  %10 = getelementptr inbounds nuw i8, ptr %2, i64 16
  store ptr %9, ptr %10, align 8
  %11 = getelementptr inbounds nuw i8, ptr %0, i64 4
  %12 = getelementptr inbounds nuw i8, ptr %0, i64 16
  %13 = getelementptr inbounds nuw i8, ptr %2, i64 8
  %14 = load i32, ptr %11, align 4
  %15 = icmp sgt i32 %14, 0
  br i1 %15, label %.lr.ph26, label %._crit_edge

._crit_edge:                                      ; preds = %.lr.ph26, %list_length.exit.thread, %.lr.ph
  %16 = getelementptr inbounds nuw i8, ptr %2, i64 44
  store i32 0, ptr %16, align 4
  ret ptr %2

.lr.ph26:                                         ; preds = %.lr.ph, %.lr.ph26
  %indvars.iv = phi i64 [ %indvars.iv.next, %.lr.ph26 ], [ 0, %.lr.ph ]
  %17 = load ptr, ptr %12, align 8
  %18 = getelementptr inbounds nuw %union.ListCell, ptr %17, i64 %indvars.iv
  %19 = load ptr, ptr %18, align 8
  %20 = load ptr, ptr %13, align 8
  %21 = getelementptr inbounds nuw i8, ptr %19, i64 8
  %22 = load ptr, ptr %21, align 8
  %23 = tail call ptr @lappend(ptr noundef %20, ptr noundef %22) #10
  store ptr %23, ptr %13, align 8
  %24 = getelementptr inbounds nuw i8, ptr %19, i64 32
  %25 = load i32, ptr %24, align 8
  %26 = load ptr, ptr %10, align 8
  %27 = getelementptr inbounds nuw i32, ptr %26, i64 %indvars.iv
  store i32 %25, ptr %27, align 4
  %indvars.iv.next = add nuw nsw i64 %indvars.iv, 1
  %28 = load i32, ptr %11, align 4
  %29 = sext i32 %28 to i64
  %30 = icmp slt i64 %indvars.iv.next, %29
  br i1 %30, label %.lr.ph26, label %._crit_edge
}